; ModuleID = '53/1451.c'
source_filename = "53/1451.c"
target datalayout = "e-m:e-p270:32:32-p271:32:32-p272:64:64-i64:64-f80:128-n8:16:32:64-S128"
target triple = "x86_64-pc-linux-gnu"

@.str = private unnamed_addr constant [3 x i8] c"%d\00", align 1
@.str.1 = private unnamed_addr constant [4 x i8] c",%d\00", align 1

; Function Attrs: noinline nounwind uwtable
define dso_local i32 @main() #0 {
  %1 = alloca i32, align 4
  %2 = alloca i32, align 4
  %3 = alloca i32, align 4
  %4 = alloca i32, align 4
  %5 = alloca i32, align 4
  %6 = alloca i32, align 4
  %7 = alloca i32, align 4
  %8 = alloca [300 x i32], align 16
  %9 = alloca [300 x i32], align 16
  store i32 0, i32* %1, align 4
  %10 = call i32 (i8*, ...) @__isoc99_scanf(i8* getelementptr inbounds ([3 x i8], [3 x i8]* @.str, i64 0, i64 0), i32* %2)
  store i32 0, i32* %3, align 4
  br label %11

11:                                               ; preds = %20, %0
  %12 = load i32, i32* %3, align 4
  %13 = load i32, i32* %2, align 4
  %14 = icmp slt i32 %12, %13
  br i1 %14, label %15, label %23

15:                                               ; preds = %11
  %16 = load i32, i32* %3, align 4
  %17 = sext i32 %16 to i64
  %18 = getelementptr inbounds [300 x i32], [300 x i32]* %8, i64 0, i64 %17
  %19 = call i32 (i8*, ...) @__isoc99_scanf(i8* getelementptr inbounds ([3 x i8], [3 x i8]* @.str, i64 0, i64 0), i32* %18)
  br label %20

20:                                               ; preds = %15
  %21 = load i32, i32* %3, align 4
  %22 = add nsw i32 %21, 1
  store i32 %22, i32* %3, align 4
  br label %11

23:                                               ; preds = %11
  store i32 0, i32* %6, align 4
  store i32 0, i32* %3, align 4
  br label %24

24:                                               ; preds = %62, %23
  %25 = load i32, i32* %3, align 4
  %26 = load i32, i32* %2, align 4
  %27 = sub nsw i32 %26, 1
  %28 = icmp slt i32 %25, %27
  br i1 %28, label %29, label %65

29:                                               ; preds = %24
  %30 = load i32, i32* %3, align 4
  %31 = sext i32 %30 to i64
  %32 = getelementptr inbounds [300 x i32], [300 x i32]* %8, i64 0, i64 %31
  %33 = load i32, i32* %32, align 4
  store i32 %33, i32* %5, align 4
  %34 = load i32, i32* %3, align 4
  %35 = add nsw i32 %34, 1
  store i32 %35, i32* %4, align 4
  br label %36

36:                                               ; preds = %58, %29
  %37 = load i32, i32* %4, align 4
  %38 = load i32, i32* %2, align 4
  %39 = icmp slt i32 %37, %38
  br i1 %39, label %40, label %61

40:                                               ; preds = %36
  %41 = load i32, i32* %4, align 4
  %42 = sext i32 %41 to i64
  %43 = getelementptr inbounds [300 x i32], [300 x i32]* %8, i64 0, i64 %42
  %44 = load i32, i32* %43, align 4
  %45 = load i32, i32* %3, align 4
  %46 = sext i32 %45 to i64
  %47 = getelementptr inbounds [300 x i32], [300 x i32]* %8, i64 0, i64 %46
  %48 = load i32, i32* %47, align 4
  %49 = icmp eq i32 %44, %48
  br i1 %49, label %50, label %57

50:                                               ; preds = %40
  %51 = load i32, i32* %4, align 4
  %52 = load i32, i32* %6, align 4
  %53 = sext i32 %52 to i64
  %54 = getelementptr inbounds [300 x i32], [300 x i32]* %9, i64 0, i64 %53
  store i32 %51, i32* %54, align 4
  %55 = load i32, i32* %6, align 4
  %56 = add nsw i32 %55, 1
  store i32 %56, i32* %6, align 4
  br label %57

57:                                               ; preds = %50, %40
  br label %58

58:                                               ; preds = %57
  %59 = load i32, i32* %4, align 4
  %60 = add nsw i32 %59, 1
  store i32 %60, i32* %4, align 4
  br label %36

61:                                               ; preds = %36
  br label %62

62:                                               ; preds = %61
  %63 = load i32, i32* %3, align 4
  %64 = add nsw i32 %63, 1
  store i32 %64, i32* %3, align 4
  br label %24

65:                                               ; preds = %24
  store i32 0, i32* %3, align 4
  br label %66

66:                                               ; preds = %110, %65
  %67 = load i32, i32* %3, align 4
  %68 = load i32, i32* %2, align 4
  %69 = icmp slt i32 %67, %68
  br i1 %69, label %70, label %113

70:                                               ; preds = %66
  store i32 0, i32* %7, align 4
  store i32 0, i32* %4, align 4
  br label %71

71:                                               ; preds = %84, %70
  %72 = load i32, i32* %4, align 4
  %73 = load i32, i32* %6, align 4
  %74 = icmp slt i32 %72, %73
  br i1 %74, label %75, label %87

75:                                               ; preds = %71
  %76 = load i32, i32* %3, align 4
  %77 = load i32, i32* %4, align 4
  %78 = sext i32 %77 to i64
  %79 = getelementptr inbounds [300 x i32], [300 x i32]* %9, i64 0, i64 %78
  %80 = load i32, i32* %79, align 4
  %81 = icmp eq i32 %76, %80
  br i1 %81, label %82, label %83

82:                                               ; preds = %75
  store i32 1, i32* %7, align 4
  br label %83

83:                                               ; preds = %82, %75
  br label %84

84:                                               ; preds = %83
  %85 = load i32, i32* %4, align 4
  %86 = add nsw i32 %85, 1
  store i32 %86, i32* %4, align 4
  br label %71

87:                                               ; preds = %71
  %88 = load i32, i32* %7, align 4
  %89 = icmp eq i32 %88, 0
  br i1 %89, label %90, label %99

90:                                               ; preds = %87
  %91 = load i32, i32* %3, align 4
  %92 = icmp ne i32 %91, 0
  br i1 %92, label %93, label %99

93:                                               ; preds = %90
  %94 = load i32, i32* %3, align 4
  %95 = sext i32 %94 to i64
  %96 = getelementptr inbounds [300 x i32], [300 x i32]* %8, i64 0, i64 %95
  %97 = load i32, i32* %96, align 4
  %98 = call i32 (i8*, ...) @printf(i8* getelementptr inbounds ([4 x i8], [4 x i8]* @.str.1, i64 0, i64 0), i32 %97)
  br label %109

99:                                               ; preds = %90, %87
  %100 = load i32, i32* %3, align 4
  %101 = icmp eq i32 %100, 0
  br i1 %101, label %102, label %108

102:                                              ; preds = %99
  %103 = load i32, i32* %3, align 4
  %104 = sext i32 %103 to i64
  %105 = getelementptr inbounds [300 x i32], [300 x i32]* %8, i64 0, i64 %104
  %106 = load i32, i32* %105, align 4
  %107 = call i32 (i8*, ...) @printf(i8* getelementptr inbounds ([3 x i8], [3 x i8]* @.str, i64 0, i64 0), i32 %106)
  br label %108

108:                                              ; preds = %102, %99
  br label %109

109:                                              ; preds = %108, %93
  br label %110

110:                                              ; preds = %109
  %111 = load i32, i32* %3, align 4
  %112 = add nsw i32 %111, 1
  store i32 %112, i32* %3, align 4
  br label %66

113:                                              ; preds = %66
  ret i32 0
}

declare dso_local i32 @__isoc99_scanf(i8*, ...) #1

declare dso_local i32 @printf(i8*, ...) #1


!llvm.module.flags = !{!0}
!llvm.ident = !{!1}

!0 = !{i32 1, !"wchar_size", i32 4}
!1 = !{!"clang version 10.0.0-4ubuntu1 "}
